; Function Attrs: mustprogress uwtable
define hidden noundef range(i64 0, -9223372036854775808) i64 @_ZN3fmt3v114file5writeEPKvm(ptr noundef nonnull readonly align 4 captures(none) dereferenceable(4) %0, ptr noundef readonly captures(none) %1, i64 noundef %2) local_unnamed_addr #5 align 2 personality ptr @__gxx_personality_v0 {
  br label %4

4:                                                ; preds = %8, %3
  %5 = load i32, ptr %0, align 4, !tbaa !34
  %6 = tail call i64 @write(i32 noundef %5, ptr noundef %1, i64 noundef %2)
  %7 = icmp eq i64 %6, -1
  br i1 %7, label %8, label %.critedge

8:                                                ; preds = %4
  %9 = tail call ptr @__errno_location() #31
  %10 = load i32, ptr %9, align 4, !tbaa !10
  %11 = icmp eq i32 %10, 4
  br i1 %11, label %4, label %.critedge.thread, !llvm.loop !41

.critedge:                                        ; preds = %4
  %12 = icmp slt i64 %6, 0
  br i1 %12, label %.critedge.thread, label %19

.critedge.thread:                                 ; preds = %8, %.critedge
  %13 = tail call ptr @__cxa_allocate_exception(i64 32) #32
  %14 = tail call ptr @__errno_location() #31
  %15 = load i32, ptr %14, align 4, !tbaa !10
  invoke void @_ZN3fmt3v1112system_errorIJEEESt12system_erroriNS0_7fstringIJDpT_EE1tEDpOS4_(ptr dead_on_unwind writable sret(%"class.std::system_error") align 8 %13, i32 noundef %15, ptr nonnull @.str.50, i64 20)
          to label %16 unwind label %17

16:                                               ; preds = %.critedge.thread
  tail call void @__cxa_throw(ptr %13, ptr nonnull @_ZTISt12system_error, ptr nonnull @_ZNSt12system_errorD1Ev) #35
  unreachable

17:                                               ; preds = %.critedge.thread
  %18 = landingpad { ptr, i32 }
          cleanup
  tail call void @__cxa_free_exception(ptr %13) #32
  resume { ptr, i32 } %18

19:                                               ; preds = %.critedge
  ret i64 %6
}